(dp1
S'picture'
p2
(dp3
S'type'
p4
S'upload'
p5
sS'sortable'
p6
I3
sS'sql'
p7
S'CHAR(512)'
p8
ssS'title'
p9
(dp10
g4
S'string'
p11
sg6
I4
sg7
S'CHAR(512)'
p12
ssS'user_id'
p13
(dp14
S'type'
p15
S'reference auth_user'
p16
sS'sortable'
p17
I2
sS'sql'
p18
S'INTEGER REFERENCES auth_user(id) ON DELETE CASCADE'
p19
ssS'id'
p20
(dp21
g4
S'id'
p22
sg6
I1
sg7
S'INTEGER PRIMARY KEY AUTOINCREMENT'
p23
ssS'user'
p24
(dp25
g4
g11
sg6
I2
sg7
S'CHAR(512)'
p26
ss.